; Function Attrs: mustprogress nounwind uwtable
define hidden void @_ZN9vmSymbols10symbols_doEP13SymbolClosure(ptr noundef %0) local_unnamed_addr #0 align 2 {
  br label %2

2:                                                ; preds = %1, %2
  %indvars.iv = phi i64 [ 1, %1 ], [ %indvars.iv.next, %2 ]
  %3 = getelementptr inbounds [0 x ptr], ptr @_ZN6Symbol11_vm_symbolsE, i64 0, i64 %indvars.iv
  %4 = load ptr, ptr %0, align 8
  %5 = load ptr, ptr %4, align 8
  tail call void %5(ptr noundef nonnull align 8 dereferenceable(8) %0, ptr noundef nonnull %3) #9
  %indvars.iv.next = add nuw nsw i64 %indvars.iv, 1
  %.not = icmp eq i64 %indvars.iv.next, 1170
  br i1 %.not, label %.preheader, label %2

.preheader:                                       ; preds = %2, %.preheader
  %indvars.iv14 = phi i64 [ %indvars.iv.next15, %.preheader ], [ 0, %2 ]
  %6 = getelementptr inbounds [15 x ptr], ptr @_ZN9vmSymbols16_type_signaturesE, i64 0, i64 %indvars.iv14
  %7 = load ptr, ptr %0, align 8
  %8 = load ptr, ptr %7, align 8
  tail call void %8(ptr noundef nonnull align 8 dereferenceable(8) %0, ptr noundef nonnull %6) #9
  %indvars.iv.next15 = add nuw nsw i64 %indvars.iv14, 1
  %exitcond.not = icmp eq i64 %indvars.iv.next15, 15
  br i1 %exitcond.not, label %9, label %.preheader, !llvm.loop !6

9:                                                ; preds = %.preheader
  ret void
}